(dp1
S'output'
p2
S'The "end" tag is unmatched, please check if you have a starting "block" tag'
p3
sS'layer'
p4
S'ParserContainer'
p5
sS'code'
p6
S'<!doctype html>\n<html lang="en">\n\n<head>\n<link rel="stylesheet" href="{{=URL(\'static\',\'css/cssmenu/styles.css\')}}">\n<link rel="stylesheet" href="{{=URL(\'static\',\'css/coin.css\')}}">\n<meta charset="utf-8" />\n<title>Coinpay</title>\n\n</head>\n <!-- HEADER --> \n<div id="cssmenu">\n    <ul>\n       <li class=\'active\'><a href="{{=URL(\'index\')}}"><span>Coinpay</span></a></li>\n       <li><a href="{{=URL(\'settings\')}}"><span>Settings</span></a></li>\n       <li><a href="{{=URL(\'statistics\')}}"><span>Statistics</span></a></li>\n       <li class=\'last\'><a href=\'#\'><span>Vendor ID #{{=vendor_id}}</span></a></li>\n       <li style="position:relative; top:10px; left:550px;"> \n       <img src="{{=URL(\'static\',\'images/coin_logo.png\')}}" \n       style="width:50px; height:50px; position:fixed; right:50px; top:5px;"></li>\n    </ul>\n</div>\n\n\n<!-- PRICE INPUT-->\n<h1 id="price_header"> Total Price:</h1>\n<div>\n  <input id="price_input"></input> \n  <button id="btn_qr_hide" class="btn" type ="submit">Hide QR</button>\n</div>\n\n<body>\n    <ul id="list">\n\n     </ul>\n</body>\n\n\n\n <!-- BUTTONS--> \n <ul id="btn_form">\n      <li  style="display:inline;"> <button id="btn_trns" class="btn" type ="submit"> VERIFY PAYMENT</button></li>\n      <li  style="display:inline;"> <button id="btn_qr_show" class="btn" type ="submit">GRAB QR</button></li>\n</ul>\n\n<div id="linelist">\n    <ul>\n     <li class="lineitem">Product Name</li>\n     <li class="lineitem">Quantity</li>\n     <li class="lineitem">Total</li>\n    </ul>\n<ul>\n\n<li class="lineitem"><input  name= "newitem" id="newitem"  type="text" class="input-box" /></li>\n<li class="lineitem"><input  name= "numitem" id="numitem" type="text" class="input-box"/></li>\n<li class="lineitem"><output name= "itemprice" id="itemprice" type="text" class="text"/> 0.0 </output></li>\n<li class="lineitem"><output name= "totalprice" id="totalprice" type="number"/> 0.0 </output></li>\n<li class="lineitem"><button id="additem" >+</button> </li>\n</ul>\n\n<ul id="productlist">\n     {{for product in products:}}\n     <li id="product">{{=product.name}} </li> \n     {{pass}}\n</ul>\n\n</div>\n\n\n\n\n <!-- HIDDEN QR IMAGE--> \n<div id="qrcode"></div>\n\n\n<!-- SCRIPTS -->\n<script src="http://code.jquery.com/jquery-1.9.1.min.js"></script>\n<script src="{{=URL(\'static\',\'js/qr/qrcode.js\')}}" type="text/javascript"></script>    \n<script src="{{=URL(\'static\',\'js/point_of_sale.js\')}}" type="text/javascript"></script>    \n\n<!--JQuery Stuff-->\n<script>\n$( document ).ready(function() {\n  $("#qrcode").hide();\n  $("#btn_qr_hide").hide();\n\n   $("#btn_trns").click(function(){\n      var required_value = parseFloat($("#price_input").val());\n      if(Math.abs(required_value-curr_transaction) < .01){\n        $("#list li:nth-child(1)").first().css("background-color","green");\n      } else{\n        $("#list li:nth-child(1)").first().css("background-color","red");\n      }\n   } );\n\n\n\n    $("#btn_qr_show").click(function(){ \n       jQuery.ajax({\n         method:\'post\',\n         url: \'{{=URL(\'get_address\')}}\',\n         success: function(data){\n           $.get("https://bitpay.com/api/rates",function(response){\n                var address= data;\n                var amount = parseFloat($("#price_input").val())/ parseFloat(response[0].rate);\n                var str_amount = amount.toFixed(6);\n                var qr_str = "bitcoin:"+address + "?amount=" +str_amount;\n                console.log(qr_str);\n                var qrcode = new QRCode("qrcode",  \n                      {text: qr_str,\n                      width: 500,\n                      height: 500,\n                      colorDark : "#000000",\n                      colorLight : "#ffffff",\n                      correctLevel : QRCode.CorrectLevel.H});\n                $("#qrcode").show(); \n                $("#btn_qr_hide").show();\n                $("#list").hide();\n                $("#btn_form").hide();\n                $("#cssmenu").hide();\n                $("#price_header").hide();\n          });\n        }\n      });\n    });\n\n    $("#btn_qr_hide").click(function(){\n      $("#qrcode").hide();\n      $("#qrcode").empty(); \n      $("#btn_qr_hide").hide();\n      $("#list").show();\n      $("#btn_form").show();\n      $("#cssmenu").show();\n      $("#price_header").show();\n\n    });\n\n  \n\n\n});\n</script>\n\n\n<script>\nwindow.setInterval(get_data,5000);\n\nfunction get_data(){    \n   jQuery.ajax({\n     method:\'post\',\n     url: \'{{=URL(\'get_address\')}}\',\n     success: function(data){\n      var address=data;\n      //get conversion rate\n      $.get("https://bitpay.com/api/rates",function(response){\n         var average_conv = response[0].rate;  \n         jQuery.ajax({\n              method:\'post\',\n              url: \'{{=URL(\'add_conv\')}}\',\n              data:{\'conv\':average_conv},\n              success: function(data){\n                console.log("add_conv:return= " + data);\n              }\n          });\n          console.log("getdata:"+average_conv);\n          console.log("getdata:"+address);\n         \n          //get 5 transactions and update page\n          store_txs(response,address,average_conv);\n \n      });\n  }});\n     \n}\n\nfunction store_txs(response,address,average_conv){\n    $.get( (api_address+address), function(response){\n       var new_data = update_transaction_list(response,average_conv,new_data);\n       var len = response.data.txs.length;\n       if(new_data){\n           console.log("storing transactions");\n           jQuery.ajax({\n             method:\'post\',\n             url: \'{{=URL(\'add_exchange\')}}\',\n             data:{\'value0\': response.data.txs[len-5].value*average_conv,\n                  \'time0\':response.data.txs[len-5].time,\n                   \'value1\': response.data.txs[len-4].value*average_conv,\n                   \'time1\':response.data.txs[len-4].time,\n                   \'value2\': response.data.txs[len-3].value*average_conv,\n                   \'time2\':response.data.txs[len-3].time,\n                   \'value3\': response.data.txs[len-2].value*average_conv,\n                   \'time3\':response.data.txs[len-2].time,\n                   \'value4\': response.data.txs[len-1].value*average_conv,\n                   \'time4\':response.data.txs[len-1].time},\n            success: function(data){\n              console.log("add_exchange:return=" +        data  );\n            }\n           });\n         }     \n    });\n}\n\nfunction get_price(choosen){\n     {{blockhead}}\n     ajax(\'{{=URL(\'get_price\')}}+"?choosen=\' + choosen,[],\'itemprice\');\n     {{end}}\n    /* jQuery.ajax({\n      method:\'post\',\n      url:\'{{=URL(\'get_price\')}}\',\n      data:{\'choosen\':choosen},\n      success:function(data){$("#itemprice").val(data);}\n      });\n*/\n}\n\n</script>\n<script src="{{=URL(\'static\',\'js/coin.js\')}}" type="text/javascript"></script>\n</html>\n'
p7
sS'snapshot'
p8
(dp9
S'exception'
p10
(dp11
S'__module__'
p12
S"'gluon.rocket'"
p13
sS'__getslice__'
p14
S"<method-wrapper '__getslice__' of SocketTimeout object>"
p15
sS'__str__'
p16
S"<method-wrapper '__str__' of SocketTimeout object>"
p17
sS'__reduce__'
p18
S'<built-in method __reduce__ of SocketTimeout object>'
p19
sS'__dict__'
p20
S'{}'
p21
sS'__sizeof__'
p22
S'<built-in method __sizeof__ of SocketTimeout object>'
p23
sS'__weakref__'
p24
S'None'
p25
sS'__init__'
p26
S"<method-wrapper '__init__' of SocketTimeout object>"
p27
sS'__setattr__'
p28
S"<method-wrapper '__setattr__' of SocketTimeout object>"
p29
sS'__reduce_ex__'
p30
S'<built-in method __reduce_ex__ of SocketTimeout object>'
p31
sS'__new__'
p32
S'<built-in method __new__ of type object>'
p33
sS'__format__'
p34
S'<built-in method __format__ of SocketTimeout object>'
p35
sS'__class__'
p36
S"<class 'gluon.rocket.SocketTimeout'>"
p37
sS'__doc__'
p38
S"'Exception for when a socket times out between requests.'"
p39
sS'__getitem__'
p40
S"<method-wrapper '__getitem__' of SocketTimeout object>"
p41
sS'__setstate__'
p42
S'<built-in method __setstate__ of SocketTimeout object>'
p43
sS'__getattribute__'
p44
S"<method-wrapper '__getattribute__' of SocketTimeout object>"
p45
sS'args'
p46
S"('Socket timed out before request.',)"
p47
sS'__subclasshook__'
p48
S'<built-in method __subclasshook__ of type object>'
p49
sS'__unicode__'
p50
S'<built-in method __unicode__ of SocketTimeout object>'
p51
sS'__delattr__'
p52
S"<method-wrapper '__delattr__' of SocketTimeout object>"
p53
sS'__repr__'
p54
S"<method-wrapper '__repr__' of SocketTimeout object>"
p55
sS'__hash__'
p56
S"<method-wrapper '__hash__' of SocketTimeout object>"
p57
ssS'evalue'
p58
S'Socket timed out before request.'
p59
sS'frames'
p60
(lp61
(dp62
S'file'
p63
S'/home/jake/Courses/183/web2py/gluon/rocket.py'
p64
sS'dump'
p65
(dp66
S'self'
p67
S'<WSGIWorker(Thread-4, started daemon 140019935004416)>'
p68
sS'conn'
p69
S'<gluon.rocket.Connection object>'
p70
sS'self.run_app'
p71
S'<bound method WSGIWorker.run_app of <WSGIWorker(Thread-4, started daemon 140019935004416)>>'
p72
ssS'lnum'
p73
I1337
sS'lines'
p74
(dp75
I1332
S'            # Enter connection serve loop'
p76
sI1333
S'            while True:'
p77
sI1334
S'                if __debug__:'
p78
sI1335
S"                    self.err_log.debug('Serving a request')"
p79
sI1336
S'                try:'
p80
sI1337
S'                    self.run_app(conn)'
p81
sI1338
S'                except:'
p82
sI1339
S'                    exc = sys.exc_info()'
p83
sI1340
S'                    handled = self._handleError(*exc)'
p84
sI1341
S'                    if handled:'
p85
ssS'call'
p86
S'(self=<WSGIWorker(Thread-4, started daemon 140019935004416)>)'
p87
sS'func'
p88
S'run'
p89
sa(dp90
g63
S'/home/jake/Courses/183/web2py/gluon/rocket.py'
p91
sg65
(dp92
S'self'
p93
S'<WSGIWorker(Thread-4, started daemon 140019935004416)>'
p94
sS'self.environ'
p95
S"{'HTTP_ACCEPT': 'text/html,application/xhtml+xml,application/xml;q=0.9,*/*;q=0.8', 'HTTP_ACCEPT_ENCODING': 'gzip, deflate', 'HTTP_ACCEPT_LANGUAGE': 'en-US,en;q=0.5', 'HTTP_CACHE_CONTROL': 'max-age=0', 'HTTP_CONNECTION': 'keep-alive', 'HTTP_COOKIE': 'session_id_welcome=127.0.0.1-3c3514c5-5c3a-4b8e-...ay=127.0.0.1-aaaeb11e-383b-4b75-9d08-d822da382168', 'HTTP_HOST': '127.0.0.1:8000', 'HTTP_REFERER': 'http://127.0.0.1:8000/Coinpay/default/user/login?_next=/Coinpay/default/index', 'HTTP_USER_AGENT': 'Mozilla/5.0 (Windows NT 6.1; WOW64; rv:29.0) Gecko/20100101 Firefox/29.0', 'PATH_INFO': '/Coinpay/default/index', ...}"
p96
sS'sock_file'
p97
S'<socket._fileobject object>'
p98
sS'environ'
p99
S'undefined'
p100
sS'self.build_environ'
p101
S'<bound method WSGIWorker.build_environ of <WSGIWorker(Thread-4, started daemon 140019935004416)>>'
p102
sS'conn'
p103
S'<gluon.rocket.Connection object>'
p104
ssg73
I1830
sg74
(dp105
I1825
S'        else:'
p106
sI1826
S'            sock_file = conn.makefile(BUF_SIZE)'
p107
sI1827
S''
sI1828
S'        try:'
p108
sI1829
S'            # Read the headers and build our WSGI environment'
p109
sI1830
S'            self.environ = environ = self.build_environ(sock_file, conn)'
p110
sI1831
S''
sI1832
S'            # Handle 100 Continue'
p111
sI1833
S"            if environ.get('HTTP_EXPECT', '') == '100-continue':"
p112
sI1834
S"                res = environ['SERVER_PROTOCOL'] + ' 100 Continue\\r\\n\\r\\n'"
p113
ssg86
S'(self=<WSGIWorker(Thread-4, started daemon 140019935004416)>, conn=<gluon.rocket.Connection object>)'
p114
sg88
S'run_app'
p115
sa(dp116
g63
S'/home/jake/Courses/183/web2py/gluon/rocket.py'
p117
sg65
(dp118
S'sock_file'
p119
S'<socket._fileobject object>'
p120
sS'self.read_request_line'
p121
S'<bound method WSGIWorker.read_request_line of <W...orker(Thread-4, started daemon 140019935004416)>>'
p122
sS'self'
p123
S'<WSGIWorker(Thread-4, started daemon 140019935004416)>'
p124
sS'request'
p125
g100
ssg73
I1650
sg74
(dp126
I1645
S'                                      "wsgiorg.futures": executor.futures})'
p127
sI1646
S''
sI1647
S'    def build_environ(self, sock_file, conn):'
p128
sI1648
S'        """ Build the execution environment. """'
p129
sI1649
S'        # Grab the request line'
p130
sI1650
S'        request = self.read_request_line(sock_file)'
p131
sI1651
S''
sI1652
S'        # Copy the Base Environment'
p132
sI1653
S'        environ = self.base_environ.copy()'
p133
sI1654
S''
ssg86
S'(self=<WSGIWorker(Thread-4, started daemon 140019935004416)>, sock_file=<socket._fileobject object>, conn=<gluon.rocket.Connection object>)'
p134
sg88
S'build_environ'
p135
sa(dp136
g63
S'/home/jake/Courses/183/web2py/gluon/rocket.py'
p137
sg65
(dp138
S'global SocketTimeout'
p139
S"<class 'gluon.rocket.SocketTimeout'>"
p140
ssg73
I1401
sg74
(dp141
I1396
S''
sI1397
S'                d = sock_file.readline()'
p142
sI1398
S'                if PY3K:'
p143
sI1399
S"                    d = d.decode('ISO-8859-1')"
p144
sI1400
S'        except socket.timeout:'
p145
sI1401
S"            raise SocketTimeout('Socket timed out before request.')"
p146
sI1402
S'        except TypeError:'
p147
sI1403
S'            raise SocketClosed('
p148
sI1404
S"                'SSL bug caused closure of socket.  See '"
p149
sI1405
S'                \'"https://groups.google.com/d/topic/web2py/P_Gw0JxWzCs".\')'
p150
ssg86
S'(self=<WSGIWorker(Thread-4, started daemon 140019935004416)>, sock_file=<socket._fileobject object>)'
p151
sg88
S'read_request_line'
p152
sasS'pyver'
p153
S'Python 2.7.6: /usr/bin/python (prefix: /usr)'
p154
sS'etype'
p155
S"<class 'gluon.rocket.SocketTimeout'>"
p156
sS'date'
p157
S'Fri Dec 12 06:52:59 2014'
p158
sS'locals'
p159
(dp160
S'sock_file'
p161
S'<socket._fileobject object>'
p162
sS'self'
p163
S'<WSGIWorker(Thread-4, started daemon 140019935004416)>'
p164
sssS'traceback'
p165
S'Traceback (most recent call last):\n  File "/home/jake/Courses/183/web2py/gluon/rocket.py", line 1337, in run\n    self.run_app(conn)\n  File "/home/jake/Courses/183/web2py/gluon/rocket.py", line 1830, in run_app\n    self.environ = environ = self.build_environ(sock_file, conn)\n  File "/home/jake/Courses/183/web2py/gluon/rocket.py", line 1650, in build_environ\n    request = self.read_request_line(sock_file)\n  File "/home/jake/Courses/183/web2py/gluon/rocket.py", line 1401, in read_request_line\n    raise SocketTimeout(\'Socket timed out before request.\')\nSocketTimeout: Socket timed out before request.\n'
p166
s.